; Function Attrs: nounwind uwtable
define zeroext range(i8 0, 2) i8 @l_Lean_Meta_FVarSubst_contains(ptr noundef %0, ptr noundef %1) local_unnamed_addr #0 {
  br label %3

3:                                                ; preds = %13, %2
  %.011.i = phi ptr [ %0, %2 ], [ %17, %13 ]
  %4 = ptrtoint ptr %.011.i to i64
  %5 = and i64 %4, 1
  %.not.i.i = icmp eq i64 %5, 0
  br i1 %.not.i.i, label %9, label %6

6:                                                ; preds = %3
  %7 = lshr i64 %4, 1
  %8 = trunc i64 %7 to i32
  br label %lean_obj_tag.exit.i

9:                                                ; preds = %3
  %10 = getelementptr i8, ptr %.011.i, i64 4
  %.val.i.i = load i32, ptr %10, align 4
  %11 = lshr i32 %.val.i.i, 24
  br label %lean_obj_tag.exit.i

lean_obj_tag.exit.i:                              ; preds = %9, %6
  %.0.i.i = phi i32 [ %8, %6 ], [ %11, %9 ]
  %12 = icmp eq i32 %.0.i.i, 0
  br i1 %12, label %l_Lean_AssocList_contains___at_Lean_Meta_FVarSubst_contains___spec__1.exit, label %13

13:                                               ; preds = %lean_obj_tag.exit.i
  %14 = getelementptr inbounds nuw i8, ptr %.011.i, i64 8
  %15 = load ptr, ptr %14, align 8, !tbaa !10
  %16 = getelementptr inbounds nuw i8, ptr %.011.i, i64 24
  %17 = load ptr, ptr %16, align 8, !tbaa !10
  %18 = tail call zeroext i8 @lean_name_eq(ptr noundef %15, ptr noundef %1) #3
  %19 = icmp eq i8 %18, 0
  br i1 %19, label %3, label %l_Lean_AssocList_contains___at_Lean_Meta_FVarSubst_contains___spec__1.exit

l_Lean_AssocList_contains___at_Lean_Meta_FVarSubst_contains___spec__1.exit: ; preds = %lean_obj_tag.exit.i, %13
  %.1.i = phi i8 [ 1, %13 ], [ 0, %lean_obj_tag.exit.i ]
  ret i8 %.1.i
}